; Function Attrs: mustprogress uwtable
define void @_ZN2cv25BOWImgDescriptorExtractor7computeERKNS_11_InputArrayERSt6vectorINS_8KeyPointESaIS5_EERKNS_12_OutputArrayEPS4_IS4_IiSaIiEESaISD_EEPNS_3MatE(ptr noundef nonnull align 8 dereferenceable(136) %0, ptr noundef nonnull align 8 dereferenceable(24) %1, ptr noundef nonnull align 8 dereferenceable(24) %2, ptr noundef nonnull align 8 dereferenceable(24) %3, ptr noundef %4, ptr noundef %5) local_unnamed_addr #4 align 2 personality ptr @__gxx_personality_v0 {
  %7 = alloca %"class.cv::utils::trace::details::Region", align 8
  %8 = alloca %"class.cv::Mat", align 8
  %9 = alloca %"class.cv::_OutputArray", align 8
  %10 = alloca %"class.cv::_InputArray", align 8
  %11 = alloca %"class.cv::Mat", align 8
  call void @_ZN2cv5utils5trace7details6RegionC1ERKNS3_21LocationStaticStorageE(ptr noundef nonnull align 8 dereferenceable(12) %7, ptr noundef nonnull align 8 dereferenceable(32) @_ZZN2cv25BOWImgDescriptorExtractor7computeERKNS_11_InputArrayERSt6vectorINS_8KeyPointESaIS5_EERKNS_12_OutputArrayEPS4_IS4_IiSaIiEESaISD_EEPNS_3MatEE25__cv_trace_location_fn146)
  invoke void @_ZNK2cv12_OutputArray7releaseEv(ptr noundef nonnull align 8 dereferenceable(24) %3)
          to label %12 unwind label %17

12:                                               ; preds = %6
  %13 = load ptr, ptr %2, align 8
  %14 = getelementptr inbounds i8, ptr %2, i64 8
  %15 = load ptr, ptr %14, align 8
  %16 = icmp eq ptr %13, %15
  br i1 %16, label %45, label %19

17:                                               ; preds = %6
  %18 = landingpad { ptr, i32 }
          cleanup
  br label %53

19:                                               ; preds = %12
  call void @_ZN2cv3MatC1Ev(ptr noundef nonnull align 8 dereferenceable(96) %8) #20
  %20 = getelementptr inbounds i8, ptr %0, i64 104
  %21 = load ptr, ptr %20, align 8
  %22 = getelementptr inbounds i8, ptr %9, i64 8
  %23 = getelementptr inbounds i8, ptr %9, i64 16
  store i64 0, ptr %23, align 8
  store i32 33619968, ptr %9, align 8
  store ptr %8, ptr %22, align 8
  %24 = load ptr, ptr %21, align 8
  %25 = getelementptr inbounds i8, ptr %24, i64 80
  %26 = load ptr, ptr %25, align 8
  invoke void %26(ptr noundef nonnull align 8 dereferenceable(8) %21, ptr noundef nonnull align 8 dereferenceable(24) %1, ptr noundef nonnull align 8 dereferenceable(24) %2, ptr noundef nonnull align 8 dereferenceable(24) %9)
          to label %27 unwind label %38

27:                                               ; preds = %19
  %28 = getelementptr inbounds i8, ptr %10, i64 16
  store i32 0, ptr %28, align 8
  %29 = getelementptr inbounds i8, ptr %10, i64 20
  store i32 0, ptr %29, align 4
  store i32 16842752, ptr %10, align 8
  %30 = getelementptr inbounds i8, ptr %10, i64 8
  store ptr %8, ptr %30, align 8
  invoke void @_ZN2cv25BOWImgDescriptorExtractor7computeERKNS_11_InputArrayERKNS_12_OutputArrayEPSt6vectorIS7_IiSaIiEESaIS9_EE(ptr noundef nonnull align 8 dereferenceable(136) %0, ptr noundef nonnull align 8 dereferenceable(24) %10, ptr noundef nonnull align 8 dereferenceable(24) %3, ptr noundef %4)
          to label %31 unwind label %40

31:                                               ; preds = %27
  %.not = icmp eq ptr %5, null
  br i1 %.not, label %44, label %32

32:                                               ; preds = %31
  invoke void @_ZNK2cv3Mat5cloneEv(ptr dead_on_unwind nonnull writable sret(%"class.cv::Mat") align 8 %11, ptr noundef nonnull align 8 dereferenceable(96) %8)
          to label %33 unwind label %36

33:                                               ; preds = %32
  %34 = invoke noundef nonnull align 8 dereferenceable(96) ptr @_ZN2cv3MataSEOS0_(ptr noundef nonnull align 8 dereferenceable(96) %5, ptr noundef nonnull align 8 dereferenceable(96) %11)
          to label %35 unwind label %42

35:                                               ; preds = %33
  call void @_ZN2cv3MatD1Ev(ptr noundef nonnull align 8 dereferenceable(96) %11) #20
  br label %44

36:                                               ; preds = %32
  %37 = landingpad { ptr, i32 }
          cleanup
  br label %52

38:                                               ; preds = %19
  %39 = landingpad { ptr, i32 }
          cleanup
  br label %52

40:                                               ; preds = %27
  %41 = landingpad { ptr, i32 }
          cleanup
  br label %52

42:                                               ; preds = %33
  %43 = landingpad { ptr, i32 }
          cleanup
  call void @_ZN2cv3MatD1Ev(ptr noundef nonnull align 8 dereferenceable(96) %11) #20
  br label %52

44:                                               ; preds = %35, %31
  call void @_ZN2cv3MatD1Ev(ptr noundef nonnull align 8 dereferenceable(96) %8) #20
  br label %45

45:                                               ; preds = %12, %44
  %46 = getelementptr inbounds i8, ptr %7, i64 8
  %47 = load i32, ptr %46, align 8
  %.not.i = icmp eq i32 %47, 0
  br i1 %.not.i, label %_ZN2cv5utils5trace7details6RegionD2Ev.exit, label %48

48:                                               ; preds = %45
  invoke void @_ZN2cv5utils5trace7details6Region7destroyEv(ptr noundef nonnull align 8 dereferenceable(12) %7)
          to label %_ZN2cv5utils5trace7details6RegionD2Ev.exit unwind label %49

49:                                               ; preds = %48
  %50 = landingpad { ptr, i32 }
          catch ptr null
  %51 = extractvalue { ptr, i32 } %50, 0
  call void @__clang_call_terminate(ptr %51) #22
  unreachable

_ZN2cv5utils5trace7details6RegionD2Ev.exit:       ; preds = %45, %48
  ret void

52:                                               ; preds = %42, %40, %38, %36
  %.pn = phi { ptr, i32 } [ %43, %42 ], [ %37, %36 ], [ %41, %40 ], [ %39, %38 ]
  call void @_ZN2cv3MatD1Ev(ptr noundef nonnull align 8 dereferenceable(96) %8) #20
  br label %53

53:                                               ; preds = %52, %17
  %.pn.pn = phi { ptr, i32 } [ %.pn, %52 ], [ %18, %17 ]
  call void @_ZN2cv5utils5trace7details6RegionD2Ev(ptr noundef nonnull align 8 dereferenceable(12) %7) #20
  resume { ptr, i32 } %.pn.pn
}